; Function Attrs: mustprogress nofree norecurse nosync nounwind memory(readwrite, inaccessiblemem: none) uwtable
define void @_Z27setPrevStepPullComFromStateP6pull_tPK7t_state(ptr nocapture noundef readonly %0, ptr nocapture noundef readonly %1) local_unnamed_addr #16 {
  %3 = getelementptr inbounds i8, ptr %0, i64 104
  %4 = getelementptr inbounds i8, ptr %0, i64 112
  %5 = load ptr, ptr %4, align 8
  %6 = load ptr, ptr %3, align 8
  %.not = icmp eq ptr %5, %6
  br i1 %.not, label %._crit_edge, label %.preheader.lr.ph

.preheader.lr.ph:                                 ; preds = %2
  %7 = getelementptr inbounds i8, ptr %1, i64 808
  br label %.preheader

.preheader:                                       ; preds = %.preheader.lr.ph, %16
  %.01012 = phi i64 [ 0, %.preheader.lr.ph ], [ %17, %16 ]
  %8 = mul i64 %.01012, 3
  br label %9

9:                                                ; preds = %.preheader, %9
  %indvars.iv = phi i64 [ 0, %.preheader ], [ %indvars.iv.next, %9 ]
  %10 = load ptr, ptr %7, align 8
  %11 = getelementptr double, ptr %10, i64 %8
  %12 = getelementptr double, ptr %11, i64 %indvars.iv
  %13 = load double, ptr %12, align 8
  %14 = load ptr, ptr %3, align 8
  %15 = getelementptr inbounds %struct.pull_group_work_t, ptr %14, i64 %.01012, i32 15, i64 %indvars.iv
  store double %13, ptr %15, align 8
  %indvars.iv.next = add nuw nsw i64 %indvars.iv, 1
  %exitcond.not = icmp eq i64 %indvars.iv.next, 3
  br i1 %exitcond.not, label %16, label %9, !llvm.loop !46

16:                                               ; preds = %9
  %17 = add nuw i64 %.01012, 1
  %18 = load ptr, ptr %4, align 8
  %19 = load ptr, ptr %3, align 8
  %20 = ptrtoint ptr %18 to i64
  %21 = ptrtoint ptr %19 to i64
  %22 = sub i64 %20, %21
  %23 = sdiv exact i64 %22, 272
  %24 = icmp ult i64 %17, %23
  br i1 %24, label %.preheader, label %._crit_edge, !llvm.loop !47

._crit_edge:                                      ; preds = %16, %2
  ret void
}